target datalayout = "e-m:e-p270:32:32-p271:32:32-p272:64:64-i64:64-i128:128-f80:128-n8:16:32:64-S128"
target triple = "x86_64-pc-linux-gnu"

; Function Attrs: nounwind uwtable
define internal i32 @memout(ptr noundef %0, i8 noundef signext %1, i32 noundef %2, ptr noundef %3) #0 {
  %5 = alloca i32, align 4
  %6 = alloca ptr, align 8
  %7 = alloca i8, align 1
  %8 = alloca i32, align 4
  %9 = alloca ptr, align 8
  store ptr %0, ptr %6, align 8, !tbaa !28
  store i8 %1, ptr %7, align 1, !tbaa !4
  store i32 %2, ptr %8, align 4, !tbaa !7
  store ptr %3, ptr %9, align 8, !tbaa !22
  %10 = load ptr, ptr %6, align 8, !tbaa !28
  %11 = call i32 @BIO_write(ptr noundef %10, ptr noundef %7, i32 noundef 1)
  %12 = icmp ne i32 %11, 1
  br i1 %12, label %13, label %14

13:                                               ; preds = %4
  store i32 0, ptr %5, align 4
  br label %28

14:                                               ; preds = %4
  %15 = load ptr, ptr %9, align 8, !tbaa !22
  %16 = load i32, ptr %15, align 4, !tbaa !7
  %17 = add nsw i32 %16, 1
  store i32 %17, ptr %15, align 4, !tbaa !7
  %18 = load i32, ptr %8, align 4, !tbaa !7
  %19 = icmp eq i32 %17, %18
  br i1 %19, label %20, label %27

20:                                               ; preds = %14
  %21 = load ptr, ptr %9, align 8, !tbaa !22
  store i32 0, ptr %21, align 4, !tbaa !7
  store i8 10, ptr %7, align 1, !tbaa !4
  %22 = load ptr, ptr %6, align 8, !tbaa !28
  %23 = call i32 @BIO_write(ptr noundef %22, ptr noundef %7, i32 noundef 1)
  %24 = icmp ne i32 %23, 1
  br i1 %24, label %25, label %26

25:                                               ; preds = %20
  store i32 0, ptr %5, align 4
  br label %28

26:                                               ; preds = %20
  br label %27

27:                                               ; preds = %26, %14
  store i32 1, ptr %5, align 4
  br label %28

28:                                               ; preds = %27, %25, %13
  %29 = load i32, ptr %5, align 4
  ret i32 %29
}

; Function Attrs: nounwind uwtable
define internal i32 @memoutws(ptr noundef %0, i8 noundef signext %1, i32 noundef %2, i32 noundef %3, ptr noundef %4) #0 {
  %6 = alloca i32, align 4
  %7 = alloca ptr, align 8
  %8 = alloca i8, align 1
  %9 = alloca i32, align 4
  %10 = alloca i32, align 4
  %11 = alloca ptr, align 8
  store ptr %0, ptr %7, align 8, !tbaa !28
  store i8 %1, ptr %8, align 1, !tbaa !4
  store i32 %2, ptr %9, align 4, !tbaa !7
  store i32 %3, ptr %10, align 4, !tbaa !7
  store ptr %4, ptr %11, align 8, !tbaa !22
  %12 = load i32, ptr %9, align 4, !tbaa !7
  %13 = icmp ugt i32 %12, 0
  br i1 %13, label %14, label %27

14:                                               ; preds = %5
  %15 = call i32 @test_random()
  %16 = load i32, ptr %10, align 4, !tbaa !7
  %17 = urem i32 %15, %16
  %18 = load i32, ptr %9, align 4, !tbaa !7
  %19 = icmp ult i32 %17, %18
  br i1 %19, label %20, label %27

20:                                               ; preds = %14
  %21 = load ptr, ptr %7, align 8, !tbaa !28
  %22 = load i32, ptr %10, align 4, !tbaa !7
  %23 = load ptr, ptr %11, align 8, !tbaa !22
  %24 = call i32 @memout(ptr noundef %21, i8 noundef signext 32, i32 noundef %22, ptr noundef %23)
  %25 = icmp eq i32 %24, 0
  br i1 %25, label %26, label %27

26:                                               ; preds = %20
  store i32 0, ptr %6, align 4
  br label %33

27:                                               ; preds = %20, %14, %5
  %28 = load ptr, ptr %7, align 8, !tbaa !28
  %29 = load i8, ptr %8, align 1, !tbaa !4
  %30 = load i32, ptr %10, align 4, !tbaa !7
  %31 = load ptr, ptr %11, align 8, !tbaa !22
  %32 = call i32 @memout(ptr noundef %28, i8 noundef signext %29, i32 noundef %30, ptr noundef %31)
  store i32 %32, ptr %6, align 4
  br label %33

33:                                               ; preds = %27, %26
  %34 = load i32, ptr %6, align 4
  ret i32 %34
}