; Function Attrs: nounwind uwtable
define internal fastcc range(i32 0, 2) i32 @memoutws(ptr noundef nonnull %0, i8 noundef signext %1, i32 noundef %2, i32 noundef %3, ptr noundef nonnull captures(none) %4) unnamed_addr #0 {
  %6 = alloca i8, align 1
  %7 = alloca i8, align 1
  %.not = icmp eq i32 %2, 0
  br i1 %.not, label %20, label %8

8:                                                ; preds = %5
  %9 = tail call i32 @test_random() #8
  %10 = urem i32 %9, %3
  %11 = icmp ult i32 %10, %2
  br i1 %11, label %12, label %20

12:                                               ; preds = %8
  call void @llvm.lifetime.start.p0(i64 1, ptr nonnull %7)
  store i8 32, ptr %7, align 1, !tbaa !4
  %13 = call i32 @BIO_write(ptr noundef nonnull %0, ptr noundef nonnull %7, i32 noundef 1) #8
  %.not.i = icmp eq i32 %13, 1
  br i1 %.not.i, label %14, label %memout.exit.thread

14:                                               ; preds = %12
  %15 = load i32, ptr %4, align 4, !tbaa !18
  %16 = add nsw i32 %15, 1
  store i32 %16, ptr %4, align 4, !tbaa !18
  %17 = icmp eq i32 %16, %3
  br i1 %17, label %18, label %memout.exit

18:                                               ; preds = %14
  store i32 0, ptr %4, align 4, !tbaa !18
  store i8 10, ptr %7, align 1, !tbaa !4
  %19 = call i32 @BIO_write(ptr noundef nonnull %0, ptr noundef nonnull %7, i32 noundef 1) #8
  %.not5.i = icmp eq i32 %19, 1
  br i1 %.not5.i, label %memout.exit, label %memout.exit.thread

memout.exit.thread:                               ; preds = %12, %18
  call void @llvm.lifetime.end.p0(i64 1, ptr nonnull %7)
  br label %29

memout.exit:                                      ; preds = %14, %18
  call void @llvm.lifetime.end.p0(i64 1, ptr nonnull %7)
  br label %20

20:                                               ; preds = %memout.exit, %8, %5
  call void @llvm.lifetime.start.p0(i64 1, ptr nonnull %6)
  store i8 %1, ptr %6, align 1, !tbaa !4
  %21 = call i32 @BIO_write(ptr noundef nonnull %0, ptr noundef nonnull %6, i32 noundef 1) #8
  %.not.i11 = icmp eq i32 %21, 1
  br i1 %.not.i11, label %22, label %memout.exit14

22:                                               ; preds = %20
  %23 = load i32, ptr %4, align 4, !tbaa !18
  %24 = add nsw i32 %23, 1
  store i32 %24, ptr %4, align 4, !tbaa !18
  %25 = icmp eq i32 %24, %3
  br i1 %25, label %26, label %28

26:                                               ; preds = %22
  store i32 0, ptr %4, align 4, !tbaa !18
  store i8 10, ptr %6, align 1, !tbaa !4
  %27 = call i32 @BIO_write(ptr noundef nonnull %0, ptr noundef nonnull %6, i32 noundef 1) #8
  %.not5.i13 = icmp eq i32 %27, 1
  br i1 %.not5.i13, label %28, label %memout.exit14

28:                                               ; preds = %26, %22
  br label %memout.exit14

memout.exit14:                                    ; preds = %20, %26, %28
  %.0.i12 = phi i32 [ 1, %28 ], [ 0, %20 ], [ 0, %26 ]
  call void @llvm.lifetime.end.p0(i64 1, ptr nonnull %6)
  br label %29

29:                                               ; preds = %memout.exit.thread, %memout.exit14
  %.0 = phi i32 [ %.0.i12, %memout.exit14 ], [ 0, %memout.exit.thread ]
  ret i32 %.0
}